; Function Attrs: nounwind uwtable
define internal i32 @_sort_step_by_node_list(ptr noundef readonly captures(none) %0, ptr noundef readonly captures(none) %1) #0 {
  %.val = load ptr, ptr %0, align 8
  %3 = load ptr, ptr %1, align 8
  %4 = getelementptr inbounds nuw i8, ptr %.val, i64 80
  %5 = load ptr, ptr %4, align 8
  %6 = getelementptr inbounds nuw i8, ptr %3, i64 80
  %7 = load ptr, ptr %6, align 8
  %8 = tail call ptr @hostlist_create(ptr noundef %5) #11
  tail call void @hostlist_sort(ptr noundef %8) #11
  %9 = tail call ptr @hostlist_create(ptr noundef %7) #11
  tail call void @hostlist_sort(ptr noundef %9) #11
  %10 = tail call i32 @hostlist_cmp_first(ptr noundef %8, ptr noundef %9) #11
  tail call void @hostlist_destroy(ptr noundef %8) #11
  tail call void @hostlist_destroy(ptr noundef %9) #11
  %.b9.i = load i1, ptr @reverse_order, align 1
  %11 = sub nsw i32 0, %10
  %spec.select.i = select i1 %.b9.i, i32 %11, i32 %10
  ret i32 %spec.select.i
}